target datalayout = "e-m:e-p270:32:32-p271:32:32-p272:64:64-i64:64-i128:128-f80:128-n8:16:32:64-S128"
target triple = "x86_64-pc-linux-gnu"

%struct.phpdbg_btree_result = type { i64, ptr }

@stderr = external global ptr, align 8
@.str = private unnamed_addr constant [8 x i8] c"%p: %p\0A\00", align 1

; Function Attrs: nounwind uwtable
define hidden void @phpdbg_btree_branch_dump(ptr noundef %0, i64 noundef %1) #0 {
  %3 = alloca ptr, align 8
  %4 = alloca i64, align 8
  store ptr %0, ptr %3, align 8
  store i64 %1, ptr %4, align 8
  %5 = load ptr, ptr %3, align 8
  %6 = icmp ne ptr %5, null
  br i1 %6, label %7, label %31

7:                                                ; preds = %2
  %8 = load i64, ptr %4, align 8
  %9 = add i64 %8, -1
  store i64 %9, ptr %4, align 8
  %10 = icmp ne i64 %8, 0
  br i1 %10, label %11, label %20

11:                                               ; preds = %7
  %12 = load ptr, ptr %3, align 8
  %13 = getelementptr inbounds [2 x ptr], ptr %12, i64 0, i64 0
  %14 = load ptr, ptr %13, align 8
  %15 = load i64, ptr %4, align 8
  call void @phpdbg_btree_branch_dump(ptr noundef %14, i64 noundef %15)
  %16 = load ptr, ptr %3, align 8
  %17 = getelementptr inbounds [2 x ptr], ptr %16, i64 0, i64 1
  %18 = load ptr, ptr %17, align 8
  %19 = load i64, ptr %4, align 8
  call void @phpdbg_btree_branch_dump(ptr noundef %18, i64 noundef %19)
  br label %30

20:                                               ; preds = %7
  %21 = load ptr, ptr @stderr, align 8
  %22 = load ptr, ptr %3, align 8
  %23 = getelementptr inbounds %struct.phpdbg_btree_result, ptr %22, i32 0, i32 0
  %24 = load i64, ptr %23, align 8
  %25 = inttoptr i64 %24 to ptr
  %26 = load ptr, ptr %3, align 8
  %27 = getelementptr inbounds %struct.phpdbg_btree_result, ptr %26, i32 0, i32 1
  %28 = load ptr, ptr %27, align 8
  %29 = call i32 (ptr, ptr, ...) @fprintf(ptr noundef %21, ptr noundef @.str, ptr noundef %25, ptr noundef %28) #7
  br label %30

30:                                               ; preds = %20, %11
  br label %31

31:                                               ; preds = %30, %2
  ret void
}