; Function Attrs: nofree nounwind uwtable
define hidden void @phpdbg_btree_branch_dump(ptr noundef readonly %0, i64 noundef %1) local_unnamed_addr #8 {
  %.not10 = icmp eq ptr %0, null
  br i1 %.not10, label %.loopexit, label %.lr.ph

.lr.ph:                                           ; preds = %2, %tailrecurse
  %.tr812 = phi i64 [ %4, %tailrecurse ], [ %1, %2 ]
  %.tr11 = phi ptr [ %6, %tailrecurse ], [ %0, %2 ]
  %.not7 = icmp eq i64 %.tr812, 0
  %3 = getelementptr inbounds i8, ptr %.tr11, i64 8
  br i1 %.not7, label %7, label %tailrecurse

tailrecurse:                                      ; preds = %.lr.ph
  %4 = add i64 %.tr812, -1
  %5 = load ptr, ptr %.tr11, align 8
  tail call void @phpdbg_btree_branch_dump(ptr noundef %5, i64 noundef %4)
  %6 = load ptr, ptr %3, align 8
  %.not = icmp eq ptr %6, null
  br i1 %.not, label %.loopexit, label %.lr.ph

7:                                                ; preds = %.lr.ph
  %8 = load ptr, ptr @stderr, align 8
  %9 = load i64, ptr %.tr11, align 8
  %10 = inttoptr i64 %9 to ptr
  %11 = load ptr, ptr %3, align 8
  %12 = tail call i32 (ptr, ptr, ...) @fprintf(ptr noundef %8, ptr noundef nonnull @.str, ptr noundef %10, ptr noundef %11) #13
  br label %.loopexit

.loopexit:                                        ; preds = %tailrecurse, %2, %7
  ret void
}